target datalayout = "e-m:e-p270:32:32-p271:32:32-p272:64:64-i64:64-i128:128-f80:128-n8:16:32:64-S128"
target triple = "x86_64-pc-linux-gnu"

%class.ValueStack = type <{ ptr, ptr, i32, i32, %class.GrowableArray, %class.GrowableArray, ptr, i8, [7 x i8] }>
%class.GrowableArray = type { %class.GrowableArrayWithAllocator, %class.GrowableArrayMetadata }
%class.GrowableArrayWithAllocator = type { %class.GrowableArrayView }
%class.GrowableArrayView = type { %class.GrowableArrayBase, ptr }
%class.GrowableArrayBase = type { i32, i32 }
%class.GrowableArrayMetadata = type { i64 }

; Function Attrs: mustprogress nounwind uwtable
define linkonce_odr hidden void @_ZN17GrowableArrayViewIP11InstructionE6at_putEiRKS1_(ptr noundef nonnull align 8 dereferenceable(16) %0, i32 noundef %1, ptr noundef nonnull align 8 dereferenceable(8) %2) #1 comdat align 2 {
  %4 = alloca ptr, align 8
  %5 = alloca i32, align 4
  %6 = alloca ptr, align 8
  store ptr %0, ptr %4, align 8
  store i32 %1, ptr %5, align 4
  store ptr %2, ptr %6, align 8
  %7 = load ptr, ptr %4, align 8
  %8 = load ptr, ptr %6, align 8
  %9 = load ptr, ptr %8, align 8
  %10 = getelementptr inbounds %class.GrowableArrayView, ptr %7, i32 0, i32 1
  %11 = load ptr, ptr %10, align 8
  %12 = load i32, ptr %5, align 4
  %13 = sext i32 %12 to i64
  %14 = getelementptr inbounds ptr, ptr %11, i64 %13
  store ptr %9, ptr %14, align 8
  ret void
}

; Function Attrs: mustprogress nounwind uwtable
define linkonce_odr hidden noundef i32 @_ZNK17GrowableArrayBase6lengthEv(ptr noundef nonnull align 4 dereferenceable(8) %0) #1 comdat align 2 {
  %2 = alloca ptr, align 8
  store ptr %0, ptr %2, align 8
  %3 = load ptr, ptr %2, align 8
  %4 = getelementptr inbounds %class.GrowableArrayBase, ptr %3, i32 0, i32 0
  %5 = load i32, ptr %4, align 4
  ret i32 %5
}

; Function Attrs: mustprogress nounwind uwtable
define hidden void @_ZN10ValueStack12clear_localsEv(ptr noundef nonnull align 8 dereferenceable(81) %0) #1 align 2 {
  %2 = alloca ptr, align 8
  %3 = alloca i32, align 4
  %4 = alloca ptr, align 8
  store ptr %0, ptr %2, align 8
  %5 = load ptr, ptr %2, align 8
  %6 = getelementptr inbounds %class.ValueStack, ptr %5, i32 0, i32 4
  %7 = call noundef i32 @_ZNK17GrowableArrayBase6lengthEv(ptr noundef nonnull align 4 dereferenceable(8) %6)
  %8 = sub nsw i32 %7, 1
  store i32 %8, ptr %3, align 4
  br label %9

9:                                                ; preds = %15, %1
  %10 = load i32, ptr %3, align 4
  %11 = icmp sge i32 %10, 0
  br i1 %11, label %12, label %18

12:                                               ; preds = %9
  %13 = getelementptr inbounds %class.ValueStack, ptr %5, i32 0, i32 4
  %14 = load i32, ptr %3, align 4
  store ptr null, ptr %4, align 8
  call void @_ZN17GrowableArrayViewIP11InstructionE6at_putEiRKS1_(ptr noundef nonnull align 8 dereferenceable(16) %13, i32 noundef %14, ptr noundef nonnull align 8 dereferenceable(8) %4)
  br label %15

15:                                               ; preds = %12
  %16 = load i32, ptr %3, align 4
  %17 = add nsw i32 %16, -1
  store i32 %17, ptr %3, align 4
  br label %9, !llvm.loop !12

18:                                               ; preds = %9
  ret void
}