; Function Attrs: mustprogress nofree norecurse nosync nounwind memory(write, argmem: readwrite, inaccessiblemem: none) uwtable
define hidden void @_ZN10ValueStack12clear_localsEv(ptr nocapture noundef nonnull readonly align 8 dereferenceable(81) %0) local_unnamed_addr #3 align 2 {
  %2 = getelementptr inbounds i8, ptr %0, i64 24
  %3 = load i32, ptr %2, align 8
  %4 = icmp sgt i32 %3, 0
  br i1 %4, label %.lr.ph, label %._crit_edge

.lr.ph:                                           ; preds = %1
  %5 = getelementptr inbounds i8, ptr %0, i64 32
  %6 = zext nneg i32 %3 to i64
  br label %7

7:                                                ; preds = %.lr.ph, %7
  %indvars.iv = phi i64 [ %6, %.lr.ph ], [ %indvars.iv.next, %7 ]
  %indvars.iv.next = add nsw i64 %indvars.iv, -1
  %8 = load ptr, ptr %5, align 8
  %9 = getelementptr inbounds ptr, ptr %8, i64 %indvars.iv.next
  store ptr null, ptr %9, align 8
  %10 = icmp ugt i64 %indvars.iv, 1
  br i1 %10, label %7, label %._crit_edge, !llvm.loop !13

._crit_edge:                                      ; preds = %7, %1
  ret void
}